; Function Attrs: nounwind uwtable
define noundef nonnull ptr @l_Std_DHashMap_Internal_AssocList_contains___at___private_Lean_Elab_SyntheticMVars_0__Lean_Elab_Term_throwStuckAtUniverseCnstr___spec__1___boxed(ptr noundef %0, ptr noundef %1) local_unnamed_addr #0 {
  %3 = getelementptr inbounds nuw i8, ptr %0, i64 8
  %4 = getelementptr inbounds nuw i8, ptr %0, i64 16
  br label %.backedge.i

.backedge.i:                                      ; preds = %.backedge.i.backedge, %2
  %.018.i = phi ptr [ %1, %2 ], [ %18, %.backedge.i.backedge ]
  %5 = ptrtoint ptr %.018.i to i64
  %6 = and i64 %5, 1
  %.not.i.i = icmp eq i64 %6, 0
  br i1 %.not.i.i, label %10, label %7

7:                                                ; preds = %.backedge.i
  %8 = lshr i64 %5, 1
  %9 = trunc i64 %8 to i32
  br label %lean_obj_tag.exit.i

10:                                               ; preds = %.backedge.i
  %11 = getelementptr i8, ptr %.018.i, i64 4
  %.val.i.i = load i32, ptr %11, align 4
  %12 = lshr i32 %.val.i.i, 24
  br label %lean_obj_tag.exit.i

lean_obj_tag.exit.i:                              ; preds = %10, %7
  %.0.i.i = phi i32 [ %9, %7 ], [ %12, %10 ]
  %13 = icmp eq i32 %.0.i.i, 0
  br i1 %13, label %l_Std_DHashMap_Internal_AssocList_contains___at___private_Lean_Elab_SyntheticMVars_0__Lean_Elab_Term_throwStuckAtUniverseCnstr___spec__1.exit, label %14

14:                                               ; preds = %lean_obj_tag.exit.i
  %15 = getelementptr inbounds nuw i8, ptr %.018.i, i64 8
  %16 = load ptr, ptr %15, align 8, !tbaa !10
  %17 = getelementptr inbounds nuw i8, ptr %.018.i, i64 24
  %18 = load ptr, ptr %17, align 8, !tbaa !10
  %19 = getelementptr inbounds nuw i8, ptr %16, i64 8
  %20 = load ptr, ptr %19, align 8, !tbaa !10
  %21 = getelementptr inbounds nuw i8, ptr %16, i64 16
  %22 = load ptr, ptr %21, align 8, !tbaa !10
  %23 = load ptr, ptr %3, align 8, !tbaa !10
  %24 = load ptr, ptr %4, align 8, !tbaa !10
  %25 = tail call zeroext i8 @lean_level_eq(ptr noundef %20, ptr noundef %23) #7
  %26 = icmp eq i8 %25, 0
  br i1 %26, label %.backedge.i.backedge, label %27

27:                                               ; preds = %14
  %28 = tail call zeroext i8 @lean_level_eq(ptr noundef %22, ptr noundef %24) #7
  %.not.i8 = icmp eq i8 %28, 0
  br i1 %.not.i8, label %.backedge.i.backedge, label %l_Std_DHashMap_Internal_AssocList_contains___at___private_Lean_Elab_SyntheticMVars_0__Lean_Elab_Term_throwStuckAtUniverseCnstr___spec__1.exit

.backedge.i.backedge:                             ; preds = %27, %14
  br label %.backedge.i

l_Std_DHashMap_Internal_AssocList_contains___at___private_Lean_Elab_SyntheticMVars_0__Lean_Elab_Term_throwStuckAtUniverseCnstr___spec__1.exit: ; preds = %lean_obj_tag.exit.i, %27
  %.1.i = phi i64 [ 1, %lean_obj_tag.exit.i ], [ 3, %27 ]
  %29 = ptrtoint ptr %1 to i64
  %30 = and i64 %29, 1
  %.not = icmp eq i64 %30, 0
  br i1 %.not, label %31, label %lean_dec.exit5

31:                                               ; preds = %l_Std_DHashMap_Internal_AssocList_contains___at___private_Lean_Elab_SyntheticMVars_0__Lean_Elab_Term_throwStuckAtUniverseCnstr___spec__1.exit
  %32 = load i32, ptr %1, align 4, !tbaa !7
  %33 = icmp sgt i32 %32, 1
  br i1 %33, label %34, label %36, !prof !12

34:                                               ; preds = %31
  %35 = add nsw i32 %32, -1
  store i32 %35, ptr %1, align 4, !tbaa !7
  br label %lean_dec.exit5

36:                                               ; preds = %31
  %.not.i = icmp eq i32 %32, 0
  br i1 %.not.i, label %lean_dec.exit5, label %37

37:                                               ; preds = %36
  tail call void @lean_dec_ref_cold(ptr noundef nonnull %1) #7
  br label %lean_dec.exit5

lean_dec.exit5:                                   ; preds = %37, %36, %34, %l_Std_DHashMap_Internal_AssocList_contains___at___private_Lean_Elab_SyntheticMVars_0__Lean_Elab_Term_throwStuckAtUniverseCnstr___spec__1.exit
  %38 = ptrtoint ptr %0 to i64
  %39 = and i64 %38, 1
  %.not9 = icmp eq i64 %39, 0
  br i1 %.not9, label %40, label %lean_dec.exit

40:                                               ; preds = %lean_dec.exit5
  %41 = load i32, ptr %0, align 4, !tbaa !7
  %42 = icmp sgt i32 %41, 1
  br i1 %42, label %43, label %45, !prof !12

43:                                               ; preds = %40
  %44 = add nsw i32 %41, -1
  store i32 %44, ptr %0, align 4, !tbaa !7
  br label %lean_dec.exit

45:                                               ; preds = %40
  %.not.i6 = icmp eq i32 %41, 0
  br i1 %.not.i6, label %lean_dec.exit, label %46

46:                                               ; preds = %45
  tail call void @lean_dec_ref_cold(ptr noundef nonnull %0) #7
  br label %lean_dec.exit

lean_dec.exit:                                    ; preds = %46, %45, %43, %lean_dec.exit5
  %47 = inttoptr i64 %.1.i to ptr
  ret ptr %47
}